target datalayout = "e-m:e-p270:32:32-p271:32:32-p272:64:64-i64:64-i128:128-f80:128-n8:16:32:64-S128"
target triple = "x86_64-pc-linux-gnu"

%struct.PySocketModule_APIObject = type { ptr, ptr, ptr }

@.str.133 = private unnamed_addr constant [13 x i8] c"_socket.CAPI\00", align 1

; Function Attrs: nounwind uwtable
define internal i32 @sock_capi_traverse(ptr noundef %0, ptr noundef %1, ptr noundef %2) #0 {
  %4 = alloca i32, align 4
  %5 = alloca ptr, align 8
  %6 = alloca ptr, align 8
  %7 = alloca ptr, align 8
  %8 = alloca ptr, align 8
  %9 = alloca i32, align 4
  %10 = alloca i32, align 4
  store ptr %0, ptr %5, align 8, !tbaa !3
  store ptr %1, ptr %6, align 8, !tbaa !8
  store ptr %2, ptr %7, align 8, !tbaa !8
  call void @llvm.lifetime.start.p0(i64 8, ptr %8) #10
  %11 = load ptr, ptr %5, align 8, !tbaa !3
  %12 = call ptr @PyCapsule_GetPointer(ptr noundef %11, ptr noundef @.str.133)
  store ptr %12, ptr %8, align 8, !tbaa !8
  br label %13

13:                                               ; preds = %3
  %14 = load ptr, ptr %8, align 8, !tbaa !8
  %15 = getelementptr inbounds nuw %struct.PySocketModule_APIObject, ptr %14, i32 0, i32 0
  %16 = load ptr, ptr %15, align 8, !tbaa !174
  %17 = icmp ne ptr %16, null
  br i1 %17, label %18, label %33

18:                                               ; preds = %13
  call void @llvm.lifetime.start.p0(i64 4, ptr %9) #10
  %19 = load ptr, ptr %6, align 8, !tbaa !8
  %20 = load ptr, ptr %8, align 8, !tbaa !8
  %21 = getelementptr inbounds nuw %struct.PySocketModule_APIObject, ptr %20, i32 0, i32 0
  %22 = load ptr, ptr %21, align 8, !tbaa !174
  %23 = load ptr, ptr %7, align 8, !tbaa !8
  %24 = call i32 %19(ptr noundef %22, ptr noundef %23)
  store i32 %24, ptr %9, align 4, !tbaa !15
  %25 = load i32, ptr %9, align 4, !tbaa !15
  %26 = icmp ne i32 %25, 0
  br i1 %26, label %27, label %29

27:                                               ; preds = %18
  %28 = load i32, ptr %9, align 4, !tbaa !15
  store i32 %28, ptr %4, align 4
  store i32 1, ptr %10, align 4
  br label %30

29:                                               ; preds = %18
  store i32 0, ptr %10, align 4
  br label %30

30:                                               ; preds = %29, %27
  call void @llvm.lifetime.end.p0(i64 4, ptr %9) #10
  %31 = load i32, ptr %10, align 4
  switch i32 %31, label %36 [
    i32 0, label %32
  ]

32:                                               ; preds = %30
  br label %33

33:                                               ; preds = %32, %13
  br label %34

34:                                               ; preds = %33
  br label %35

35:                                               ; preds = %34
  store i32 0, ptr %4, align 4
  store i32 1, ptr %10, align 4
  br label %36

36:                                               ; preds = %35, %30
  call void @llvm.lifetime.end.p0(i64 8, ptr %8) #10
  %37 = load i32, ptr %4, align 4
  ret i32 %37
}